target datalayout = "e-m:e-p270:32:32-p271:32:32-p272:64:64-i64:64-i128:128-f80:128-n8:16:32:64-S128"
target triple = "x86_64-pc-linux-gnu"

%struct.CatalogId = type { i32, i32 }
%struct._dumpableObject = type { i32, %struct.CatalogId, i32, ptr, ptr, i32, i32, i32, i8, i8, ptr, i32, i32 }
%struct._dumpableAcl = type { ptr, ptr, i8, ptr }
%struct._loInfo = type { %struct._dumpableObject, %struct._dumpableAcl, ptr, i32, [0 x i32] }

@.str.1544 = private unnamed_addr constant [26 x i8] c"saving large objects \22%s\22\00", align 1
@.str.1545 = private unnamed_addr constant [35 x i8] c"could not open large object %u: %s\00", align 1
@.str.1546 = private unnamed_addr constant [34 x i8] c"error reading large object %u: %s\00", align 1

; Function Attrs: nounwind uwtable
define internal i32 @dumpLOs(ptr noundef %0, ptr noundef %1) #0 {
  %3 = alloca ptr, align 8
  %4 = alloca ptr, align 8
  %5 = alloca ptr, align 8
  %6 = alloca ptr, align 8
  %7 = alloca [16384 x i8], align 16
  %8 = alloca i32, align 4
  %9 = alloca i32, align 4
  %10 = alloca i32, align 4
  %11 = alloca i32, align 4
  store ptr %0, ptr %3, align 8
  store ptr %1, ptr %4, align 8
  call void @llvm.lifetime.start.p0(i64 8, ptr %5) #10
  %12 = load ptr, ptr %4, align 8
  store ptr %12, ptr %5, align 8
  call void @llvm.lifetime.start.p0(i64 8, ptr %6) #10
  %13 = load ptr, ptr %3, align 8
  %14 = call ptr @GetConnection(ptr noundef %13)
  store ptr %14, ptr %6, align 8
  call void @llvm.lifetime.start.p0(i64 16384, ptr %7) #10
  %15 = load ptr, ptr %5, align 8
  %16 = getelementptr inbounds nuw %struct._loInfo, ptr %15, i32 0, i32 0
  %17 = getelementptr inbounds nuw %struct._dumpableObject, ptr %16, i32 0, i32 3
  %18 = load ptr, ptr %17, align 8
  call void (i32, i32, ptr, ...) @pg_log_generic(i32 noundef 2, i32 noundef 0, ptr noundef @.str.1544, ptr noundef %18)
  call void @llvm.lifetime.start.p0(i64 4, ptr %8) #10
  store i32 0, ptr %8, align 4
  br label %19

19:                                               ; preds = %78, %2
  %20 = load i32, ptr %8, align 4
  %21 = load ptr, ptr %5, align 8
  %22 = getelementptr inbounds nuw %struct._loInfo, ptr %21, i32 0, i32 3
  %23 = load i32, ptr %22, align 8
  %24 = icmp slt i32 %20, %23
  br i1 %24, label %26, label %25

25:                                               ; preds = %19
  call void @llvm.lifetime.end.p0(i64 4, ptr %8) #10
  br label %81

26:                                               ; preds = %19
  call void @llvm.lifetime.start.p0(i64 4, ptr %9) #10
  %27 = load ptr, ptr %5, align 8
  %28 = getelementptr inbounds nuw %struct._loInfo, ptr %27, i32 0, i32 4
  %29 = load i32, ptr %8, align 4
  %30 = sext i32 %29 to i64
  %31 = getelementptr inbounds [0 x i32], ptr %28, i64 0, i64 %30
  %32 = load i32, ptr %31, align 4
  store i32 %32, ptr %9, align 4
  call void @llvm.lifetime.start.p0(i64 4, ptr %10) #10
  call void @llvm.lifetime.start.p0(i64 4, ptr %11) #10
  %33 = load ptr, ptr %6, align 8
  %34 = load i32, ptr %9, align 4
  %35 = call i32 @lo_open(ptr noundef %33, i32 noundef %34, i32 noundef 262144)
  store i32 %35, ptr %10, align 4
  %36 = load i32, ptr %10, align 4
  %37 = icmp eq i32 %36, -1
  br i1 %37, label %38, label %45

38:                                               ; preds = %26
  br label %39

39:                                               ; preds = %38
  %40 = load i32, ptr %9, align 4
  %41 = load ptr, ptr %6, align 8
  %42 = call ptr @PQerrorMessage(ptr noundef %41)
  call void (i32, i32, ptr, ...) @pg_log_generic(i32 noundef 4, i32 noundef 0, ptr noundef @.str.1545, i32 noundef %40, ptr noundef %42)
  call void @exit_nicely(i32 noundef 1) #12
  unreachable

43:                                               ; No predecessors!
  br label %44

44:                                               ; preds = %43
  br label %45

45:                                               ; preds = %44, %26
  %46 = load ptr, ptr %3, align 8
  %47 = load i32, ptr %9, align 4
  %48 = call i32 @StartLO(ptr noundef %46, i32 noundef %47)
  br label %49

49:                                               ; preds = %68, %45
  %50 = load ptr, ptr %6, align 8
  %51 = load i32, ptr %10, align 4
  %52 = getelementptr inbounds [16384 x i8], ptr %7, i64 0, i64 0
  %53 = call i32 @lo_read(ptr noundef %50, i32 noundef %51, ptr noundef %52, i64 noundef 16384)
  store i32 %53, ptr %11, align 4
  %54 = load i32, ptr %11, align 4
  %55 = icmp slt i32 %54, 0
  br i1 %55, label %56, label %63

56:                                               ; preds = %49
  br label %57

57:                                               ; preds = %56
  %58 = load i32, ptr %9, align 4
  %59 = load ptr, ptr %6, align 8
  %60 = call ptr @PQerrorMessage(ptr noundef %59)
  call void (i32, i32, ptr, ...) @pg_log_generic(i32 noundef 4, i32 noundef 0, ptr noundef @.str.1546, i32 noundef %58, ptr noundef %60)
  call void @exit_nicely(i32 noundef 1) #12
  unreachable

61:                                               ; No predecessors!
  br label %62

62:                                               ; preds = %61
  br label %63

63:                                               ; preds = %62, %49
  %64 = load ptr, ptr %3, align 8
  %65 = getelementptr inbounds [16384 x i8], ptr %7, i64 0, i64 0
  %66 = load i32, ptr %11, align 4
  %67 = sext i32 %66 to i64
  call void @WriteData(ptr noundef %64, ptr noundef %65, i64 noundef %67)
  br label %68

68:                                               ; preds = %63
  %69 = load i32, ptr %11, align 4
  %70 = icmp sgt i32 %69, 0
  br i1 %70, label %49, label %71, !llvm.loop !121

71:                                               ; preds = %68
  %72 = load ptr, ptr %6, align 8
  %73 = load i32, ptr %10, align 4
  %74 = call i32 @lo_close(ptr noundef %72, i32 noundef %73)
  %75 = load ptr, ptr %3, align 8
  %76 = load i32, ptr %9, align 4
  %77 = call i32 @EndLO(ptr noundef %75, i32 noundef %76)
  call void @llvm.lifetime.end.p0(i64 4, ptr %11) #10
  call void @llvm.lifetime.end.p0(i64 4, ptr %10) #10
  call void @llvm.lifetime.end.p0(i64 4, ptr %9) #10
  br label %78

78:                                               ; preds = %71
  %79 = load i32, ptr %8, align 4
  %80 = add i32 %79, 1
  store i32 %80, ptr %8, align 4
  br label %19, !llvm.loop !122

81:                                               ; preds = %25
  call void @llvm.lifetime.end.p0(i64 16384, ptr %7) #10
  call void @llvm.lifetime.end.p0(i64 8, ptr %6) #10
  call void @llvm.lifetime.end.p0(i64 8, ptr %5) #10
  ret i32 1
}