; Function Attrs: nounwind uwtable
define internal noundef i32 @dumpLOs(ptr noundef %0, ptr noundef readonly captures(none) %1) #5 {
  %3 = alloca [16384 x i8], align 16
  %4 = tail call ptr @GetConnection(ptr noundef %0) #14
  call void @llvm.lifetime.start.p0(i64 16384, ptr nonnull %3) #14
  %5 = getelementptr inbounds nuw i8, ptr %1, i64 16
  %6 = load ptr, ptr %5, align 8
  tail call void (i32, i32, ptr, ...) @pg_log_generic(i32 noundef 2, i32 noundef 0, ptr noundef nonnull @.str.1544, ptr noundef %6) #14
  %7 = getelementptr inbounds nuw i8, ptr %1, i64 104
  %8 = load i32, ptr %7, align 8
  %9 = icmp sgt i32 %8, 0
  br i1 %9, label %.lr.ph, label %._crit_edge

.lr.ph:                                           ; preds = %2
  %10 = getelementptr inbounds nuw i8, ptr %1, i64 108
  br label %11

._crit_edge:                                      ; preds = %27, %2
  call void @llvm.lifetime.end.p0(i64 16384, ptr nonnull %3) #14
  ret i32 1

11:                                               ; preds = %.lr.ph, %27
  %indvars.iv = phi i64 [ 0, %.lr.ph ], [ %indvars.iv.next, %27 ]
  %12 = getelementptr inbounds nuw [0 x i32], ptr %10, i64 0, i64 %indvars.iv
  %13 = load i32, ptr %12, align 4
  %14 = call i32 @lo_open(ptr noundef %4, i32 noundef %13, i32 noundef 262144) #14
  %15 = icmp eq i32 %14, -1
  br i1 %15, label %16, label %18

16:                                               ; preds = %11
  %17 = call ptr @PQerrorMessage(ptr noundef %4) #14
  call void (i32, i32, ptr, ...) @pg_log_generic(i32 noundef 4, i32 noundef 0, ptr noundef nonnull @.str.1545, i32 noundef %13, ptr noundef %17) #14
  call void @exit_nicely(i32 noundef 1) #16
  unreachable

18:                                               ; preds = %11
  %19 = call i32 @StartLO(ptr noundef %0, i32 noundef %13) #14
  br label %20

20:                                               ; preds = %25, %18
  %21 = call i32 @lo_read(ptr noundef %4, i32 noundef %14, ptr noundef nonnull %3, i64 noundef 16384) #14
  %22 = icmp slt i32 %21, 0
  br i1 %22, label %23, label %25

23:                                               ; preds = %20
  %24 = call ptr @PQerrorMessage(ptr noundef %4) #14
  call void (i32, i32, ptr, ...) @pg_log_generic(i32 noundef 4, i32 noundef 0, ptr noundef nonnull @.str.1546, i32 noundef %13, ptr noundef %24) #14
  call void @exit_nicely(i32 noundef 1) #16
  unreachable

25:                                               ; preds = %20
  %26 = zext nneg i32 %21 to i64
  call void @WriteData(ptr noundef %0, ptr noundef nonnull %3, i64 noundef %26) #14
  %.not = icmp eq i32 %21, 0
  br i1 %.not, label %27, label %20, !llvm.loop !156

27:                                               ; preds = %25
  %28 = call i32 @lo_close(ptr noundef %4, i32 noundef %14) #14
  %29 = call i32 @EndLO(ptr noundef %0, i32 noundef %13) #14
  %indvars.iv.next = add nuw nsw i64 %indvars.iv, 1
  %30 = load i32, ptr %7, align 8
  %31 = sext i32 %30 to i64
  %32 = icmp slt i64 %indvars.iv.next, %31
  br i1 %32, label %11, label %._crit_edge, !llvm.loop !157
}